target datalayout = "e-m:e-p270:32:32-p271:32:32-p272:64:64-i64:64-i128:128-f80:128-n8:16:32:64-S128"
target triple = "x86_64-unknown-linux-gnu"

; Function Attrs: mustprogress uwtable
define noundef i64 @_ZN8facebook5velox6memory14MemoryPoolImpl7reclaimEmmRNS1_15MemoryReclaimer5StatsE(ptr noundef nonnull align 8 dereferenceable(480) %this, i64 noundef %targetBytes, i64 noundef %maxWaitMs, ptr noundef nonnull align 8 dereferenceable(32) %stats) unnamed_addr #0 align 2 {
entry:
  %retval = alloca i64, align 8
  %this.addr = alloca ptr, align 8
  %targetBytes.addr = alloca i64, align 8
  %maxWaitMs.addr = alloca i64, align 8
  %stats.addr = alloca ptr, align 8
  store ptr %this, ptr %this.addr, align 8
  store i64 %targetBytes, ptr %targetBytes.addr, align 8
  store i64 %maxWaitMs, ptr %maxWaitMs.addr, align 8
  store ptr %stats, ptr %stats.addr, align 8
  %this1 = load ptr, ptr %this.addr, align 8
  %vtable = load ptr, ptr %this1, align 8
  %vfn = getelementptr inbounds ptr, ptr %vtable, i64 38
  %0 = load ptr, ptr %vfn, align 8
  %call = call noundef ptr %0(ptr noundef nonnull align 8 dereferenceable(480) %this1)
  %cmp = icmp eq ptr %call, null
  br i1 %cmp, label %if.then, label %if.end

if.then:                                          ; preds = %entry
  store i64 0, ptr %retval, align 8
  br label %return

if.end:                                           ; preds = %entry
  %vtable2 = load ptr, ptr %this1, align 8
  %vfn3 = getelementptr inbounds ptr, ptr %vtable2, i64 38
  %1 = load ptr, ptr %vfn3, align 8
  %call4 = call noundef ptr %1(ptr noundef nonnull align 8 dereferenceable(480) %this1)
  %2 = load i64, ptr %targetBytes.addr, align 8
  %3 = load i64, ptr %maxWaitMs.addr, align 8
  %4 = load ptr, ptr %stats.addr, align 8
  %vtable5 = load ptr, ptr %call4, align 8
  %vfn6 = getelementptr inbounds ptr, ptr %vtable5, i64 5
  %5 = load ptr, ptr %vfn6, align 8
  %call7 = call noundef i64 %5(ptr noundef nonnull align 8 dereferenceable(8) %call4, ptr noundef %this1, i64 noundef %2, i64 noundef %3, ptr noundef nonnull align 8 dereferenceable(32) %4)
  store i64 %call7, ptr %retval, align 8
  br label %return

return:                                           ; preds = %if.end, %if.then
  %6 = load i64, ptr %retval, align 8
  ret i64 %6
}