; Function Attrs: mustprogress uwtable
define noundef i64 @_ZN8facebook5velox6memory14MemoryPoolImpl7reclaimEmmRNS1_15MemoryReclaimer5StatsE(ptr noundef nonnull align 8 dereferenceable(480) %this, i64 noundef %targetBytes, i64 noundef %maxWaitMs, ptr noundef nonnull align 8 dereferenceable(32) %stats) unnamed_addr #0 align 2 {
entry:
  %vtable = load ptr, ptr %this, align 8
  %vfn = getelementptr inbounds i8, ptr %vtable, i64 304
  %0 = load ptr, ptr %vfn, align 8
  %call = tail call noundef ptr %0(ptr noundef nonnull align 8 dereferenceable(480) %this)
  %cmp = icmp eq ptr %call, null
  br i1 %cmp, label %return, label %if.end

if.end:                                           ; preds = %entry
  %vtable2 = load ptr, ptr %this, align 8
  %vfn3 = getelementptr inbounds i8, ptr %vtable2, i64 304
  %1 = load ptr, ptr %vfn3, align 8
  %call4 = tail call noundef ptr %1(ptr noundef nonnull align 8 dereferenceable(480) %this)
  %vtable5 = load ptr, ptr %call4, align 8
  %vfn6 = getelementptr inbounds i8, ptr %vtable5, i64 40
  %2 = load ptr, ptr %vfn6, align 8
  %call7 = tail call noundef i64 %2(ptr noundef nonnull align 8 dereferenceable(8) %call4, ptr noundef nonnull %this, i64 noundef %targetBytes, i64 noundef %maxWaitMs, ptr noundef nonnull align 8 dereferenceable(32) %stats)
  br label %return

return:                                           ; preds = %entry, %if.end
  %retval.0 = phi i64 [ %call7, %if.end ], [ 0, %entry ]
  ret i64 %retval.0
}